target datalayout = "e-m:e-p270:32:32-p271:32:32-p272:64:64-i64:64-i128:128-f80:128-n8:16:32:64-S128"
target triple = "x86_64-pc-linux-gnu"

%"class.llvm::StringRef" = type { ptr, i64 }
%"class.llvm::SmallVectorBase" = type { ptr, i32, i32 }
%"struct.llvm::omp::GV" = type { i32, i32, i32, i32, i32, i32, i32 }
%"class.llvm::ilist_iterator_w_bits" = type <{ ptr, i8, i8, [6 x i8] }>
%"class.llvm::Value" = type { i8, i8, i16, i32, ptr, ptr }
%"class.llvm::IRBuilderBase" = type { %"class.llvm::SmallVector.19", ptr, %"class.llvm::ilist_iterator_w_bits", ptr, ptr, ptr, ptr, %"class.llvm::FastMathFlags", i8, i8, i8, %"class.llvm::ArrayRef" }
%"class.llvm::SmallVector.19" = type { %"class.llvm::SmallVectorImpl.20", %"struct.llvm::SmallVectorStorage.23" }
%"class.llvm::SmallVectorImpl.20" = type { %"class.llvm::SmallVectorTemplateBase.21" }
%"class.llvm::SmallVectorTemplateBase.21" = type { %"class.llvm::SmallVectorTemplateCommon.22" }
%"class.llvm::SmallVectorTemplateCommon.22" = type { %"class.llvm::SmallVectorBase" }
%"struct.llvm::SmallVectorStorage.23" = type { [32 x i8] }
%"class.llvm::FastMathFlags" = type { i32 }
%"class.llvm::ArrayRef" = type { ptr, i64 }
%"class.llvm::Twine" = type <{ %"union.llvm::Twine::Child", %"union.llvm::Twine::Child", i8, i8, [6 x i8] }>
%"union.llvm::Twine::Child" = type { %struct.anon }
%struct.anon = type { ptr, i64 }
%"class.llvm::OpenMPIRBuilderConfig" = type { %"class.std::optional", %"class.std::optional", %"class.std::optional", %"class.std::optional", %"class.std::optional.29", %"class.std::optional.29", %"class.std::optional.35", %"class.llvm::SmallVector.43", i64 }
%"class.std::optional" = type { %"struct.std::_Optional_base" }
%"struct.std::_Optional_base" = type { %"struct.std::_Optional_payload" }
%"struct.std::_Optional_payload" = type { %"struct.std::_Optional_payload_base" }
%"struct.std::_Optional_payload_base" = type { %"union.std::_Optional_payload_base<bool>::_Storage", i8 }
%"union.std::_Optional_payload_base<bool>::_Storage" = type { %"struct.std::_Optional_payload_base<bool>::_Empty_byte" }
%"struct.std::_Optional_payload_base<bool>::_Empty_byte" = type { i8 }
%"class.std::optional.29" = type { %"struct.std::_Optional_base.30" }
%"struct.std::_Optional_base.30" = type { %"struct.std::_Optional_payload.32" }
%"struct.std::_Optional_payload.32" = type { %"struct.std::_Optional_payload_base.base", [7 x i8] }
%"struct.std::_Optional_payload_base.base" = type <{ %"union.std::_Optional_payload_base<llvm::StringRef>::_Storage", i8 }>
%"union.std::_Optional_payload_base<llvm::StringRef>::_Storage" = type { %"class.llvm::StringRef" }
%"class.std::optional.35" = type { %"struct.std::_Optional_base.36" }
%"struct.std::_Optional_base.36" = type { %"struct.std::_Optional_payload.38" }
%"struct.std::_Optional_payload.38" = type { %"struct.std::_Optional_payload_base.base.40", [3 x i8] }
%"struct.std::_Optional_payload_base.base.40" = type <{ %"union.std::_Optional_payload_base<llvm::omp::GV>::_Storage", i8 }>
%"union.std::_Optional_payload_base<llvm::omp::GV>::_Storage" = type { %"struct.llvm::omp::GV" }
%"class.llvm::SmallVector.43" = type { %"class.llvm::SmallVectorImpl.44", %"struct.llvm::SmallVectorStorage.47" }
%"class.llvm::SmallVectorImpl.44" = type { %"class.llvm::SmallVectorTemplateBase.45" }
%"class.llvm::SmallVectorTemplateBase.45" = type { %"class.llvm::SmallVectorTemplateCommon.46" }
%"class.llvm::SmallVectorTemplateCommon.46" = type { %"class.llvm::SmallVectorBase" }
%"struct.llvm::SmallVectorStorage.47" = type { [56 x i8] }
%"class.llvm::ArrayRef.48" = type { ptr, i64 }
%"class.llvm::OpenMPIRBuilder" = type { %"class.llvm::SmallVector.76", %"class.llvm::OpenMPIRBuilderConfig", ptr, %"class.llvm::IRBuilder", %"class.llvm::StringMap", %"class.llvm::DenseMap", %"class.llvm::OffloadEntriesInfoManager", %"class.llvm::Triple", %"class.llvm::SmallVector.91", %"class.llvm::SmallVector.96", %"class.std::forward_list", %"class.llvm::StringMap.104", ptr, ptr, ptr, ptr, ptr, ptr, ptr, ptr, ptr, ptr, ptr, ptr, ptr, ptr, ptr, ptr, ptr, ptr, ptr, ptr, ptr, ptr, ptr, ptr, ptr, ptr, ptr, ptr, ptr, ptr, ptr, ptr, ptr, ptr, ptr, ptr, ptr, ptr, ptr, ptr, ptr, ptr, ptr, ptr, ptr, ptr, ptr, ptr, ptr, ptr, ptr, ptr, ptr, ptr, ptr, ptr, ptr, ptr, ptr, ptr, %"class.std::__cxx11::basic_string" }
%"class.llvm::SmallVector.76" = type { %"class.llvm::SmallVectorImpl.77", %"struct.llvm::SmallVectorStorage.80" }
%"class.llvm::SmallVectorImpl.77" = type { %"class.llvm::SmallVectorTemplateBase.78" }
%"class.llvm::SmallVectorTemplateBase.78" = type { %"class.llvm::SmallVectorTemplateCommon.79" }
%"class.llvm::SmallVectorTemplateCommon.79" = type { %"class.llvm::SmallVectorBase" }
%"struct.llvm::SmallVectorStorage.80" = type { [320 x i8] }
%"class.llvm::IRBuilder" = type { %"class.llvm::IRBuilderBase", %"class.llvm::ConstantFolder", %"class.llvm::IRBuilderDefaultInserter" }
%"class.llvm::ConstantFolder" = type { %"class.llvm::IRBuilderFolder" }
%"class.llvm::IRBuilderFolder" = type { ptr }
%"class.llvm::IRBuilderDefaultInserter" = type { ptr }
%"class.llvm::StringMap" = type { %"class.llvm::StringMapImpl" }
%"class.llvm::StringMapImpl" = type { ptr, i32, i32, i32, i32 }
%"class.llvm::DenseMap" = type <{ ptr, i32, i32, i32, [4 x i8] }>
%"class.llvm::OffloadEntriesInfoManager" = type { ptr, i32, %"class.std::map", %"class.std::map.81", %"class.llvm::StringMap.86" }
%"class.std::map" = type { %"class.std::_Rb_tree" }
%"class.std::_Rb_tree" = type { %"struct.std::_Rb_tree<llvm::TargetRegionEntryInfo, std::pair<const llvm::TargetRegionEntryInfo, unsigned int>, std::_Select1st<std::pair<const llvm::TargetRegionEntryInfo, unsigned int>>, std::less<llvm::TargetRegionEntryInfo>>::_Rb_tree_impl" }
%"struct.std::_Rb_tree<llvm::TargetRegionEntryInfo, std::pair<const llvm::TargetRegionEntryInfo, unsigned int>, std::_Select1st<std::pair<const llvm::TargetRegionEntryInfo, unsigned int>>, std::less<llvm::TargetRegionEntryInfo>>::_Rb_tree_impl" = type { [8 x i8], %"struct.std::_Rb_tree_header" }
%"struct.std::_Rb_tree_header" = type { %"struct.std::_Rb_tree_node_base", i64 }
%"struct.std::_Rb_tree_node_base" = type { i32, ptr, ptr, ptr }
%"class.std::map.81" = type { %"class.std::_Rb_tree.82" }
%"class.std::_Rb_tree.82" = type { %"struct.std::_Rb_tree<llvm::TargetRegionEntryInfo, std::pair<const llvm::TargetRegionEntryInfo, llvm::OffloadEntriesInfoManager::OffloadEntryInfoTargetRegion>, std::_Select1st<std::pair<const llvm::TargetRegionEntryInfo, llvm::OffloadEntriesInfoManager::OffloadEntryInfoTargetRegion>>, std::less<llvm::TargetRegionEntryInfo>>::_Rb_tree_impl" }
%"struct.std::_Rb_tree<llvm::TargetRegionEntryInfo, std::pair<const llvm::TargetRegionEntryInfo, llvm::OffloadEntriesInfoManager::OffloadEntryInfoTargetRegion>, std::_Select1st<std::pair<const llvm::TargetRegionEntryInfo, llvm::OffloadEntriesInfoManager::OffloadEntryInfoTargetRegion>>, std::less<llvm::TargetRegionEntryInfo>>::_Rb_tree_impl" = type { [8 x i8], %"struct.std::_Rb_tree_header" }
%"class.llvm::StringMap.86" = type { %"class.llvm::StringMapImpl" }
%"class.llvm::Triple" = type { %"class.std::__cxx11::basic_string", i32, i32, i32, i32, i32, i32 }
%"class.llvm::SmallVector.91" = type { %"class.llvm::SmallVectorImpl.92", %"struct.llvm::SmallVectorStorage.95" }
%"class.llvm::SmallVectorImpl.92" = type { %"class.llvm::SmallVectorTemplateBase.93" }
%"class.llvm::SmallVectorTemplateBase.93" = type { %"class.llvm::SmallVectorTemplateCommon.94" }
%"class.llvm::SmallVectorTemplateCommon.94" = type { %"class.llvm::SmallVectorBase" }
%"struct.llvm::SmallVectorStorage.95" = type { [1408 x i8] }
%"class.llvm::SmallVector.96" = type { %"class.llvm::SmallVectorImpl.97", %"struct.llvm::SmallVectorStorage.100" }
%"class.llvm::SmallVectorImpl.97" = type { %"class.llvm::SmallVectorTemplateBase.98" }
%"class.llvm::SmallVectorTemplateBase.98" = type { %"class.llvm::SmallVectorTemplateCommon.99" }
%"class.llvm::SmallVectorTemplateCommon.99" = type { %"class.llvm::SmallVectorBase" }
%"struct.llvm::SmallVectorStorage.100" = type { [128 x i8] }
%"class.std::forward_list" = type { %"struct.std::_Fwd_list_base" }
%"struct.std::_Fwd_list_base" = type { %"struct.std::_Fwd_list_base<llvm::CanonicalLoopInfo, std::allocator<llvm::CanonicalLoopInfo>>::_Fwd_list_impl" }
%"struct.std::_Fwd_list_base<llvm::CanonicalLoopInfo, std::allocator<llvm::CanonicalLoopInfo>>::_Fwd_list_impl" = type { %"struct.std::_Fwd_list_node_base" }
%"struct.std::_Fwd_list_node_base" = type { ptr }
%"class.llvm::StringMap.104" = type { %"class.llvm::StringMapImpl", %"class.llvm::detail::AllocatorHolder.105" }
%"class.llvm::detail::AllocatorHolder.105" = type { %"class.llvm::BumpPtrAllocatorImpl" }
%"class.llvm::BumpPtrAllocatorImpl" = type { ptr, ptr, %"class.llvm::SmallVector.107", %"class.llvm::SmallVector.112", i64, i64 }
%"class.llvm::SmallVector.107" = type { %"class.llvm::SmallVectorImpl.108", %"struct.llvm::SmallVectorStorage.111" }
%"class.llvm::SmallVectorImpl.108" = type { %"class.llvm::SmallVectorTemplateBase.109" }
%"class.llvm::SmallVectorTemplateBase.109" = type { %"class.llvm::SmallVectorTemplateCommon.110" }
%"class.llvm::SmallVectorTemplateCommon.110" = type { %"class.llvm::SmallVectorBase" }
%"struct.llvm::SmallVectorStorage.111" = type { [32 x i8] }
%"class.llvm::SmallVector.112" = type { %"class.llvm::SmallVectorImpl.113" }
%"class.llvm::SmallVectorImpl.113" = type { %"class.llvm::SmallVectorTemplateBase.114" }
%"class.llvm::SmallVectorTemplateBase.114" = type { %"class.llvm::SmallVectorTemplateCommon.115" }
%"class.llvm::SmallVectorTemplateCommon.115" = type { %"class.llvm::SmallVectorBase" }
%"class.std::__cxx11::basic_string" = type { %"struct.std::__cxx11::basic_string<char>::_Alloc_hider", i64, %union.anon.90 }
%"struct.std::__cxx11::basic_string<char>::_Alloc_hider" = type { ptr }
%union.anon.90 = type { i64, [8 x i8] }
%"class.llvm::GEPNoWrapFlags" = type { i32 }

@.str.8 = private unnamed_addr constant [1 x i8] zeroinitializer, align 1

; Function Attrs: mustprogress nounwind uwtable
define linkonce_odr hidden void @_ZN4llvm14GEPNoWrapFlagsC2Ev(ptr noundef nonnull align 4 dereferenceable(4) %0) unnamed_addr #1 comdat align 2 {
  %2 = alloca ptr, align 8
  store ptr %0, ptr %2, align 8
  %3 = load ptr, ptr %2, align 8
  %4 = getelementptr inbounds nuw %"class.llvm::GEPNoWrapFlags", ptr %3, i32 0, i32 0
  store i32 0, ptr %4, align 4
  ret void
}

; Function Attrs: mustprogress nounwind uwtable
define linkonce_odr hidden noundef ptr @_ZN4llvm13IRBuilderBase10getInt32TyEv(ptr noundef nonnull align 8 dereferenceable(128) %0) #1 comdat align 2 {
  %2 = alloca ptr, align 8
  store ptr %0, ptr %2, align 8
  %3 = load ptr, ptr %2, align 8
  %4 = getelementptr inbounds nuw %"class.llvm::IRBuilderBase", ptr %3, i32 0, i32 3
  %5 = load ptr, ptr %4, align 8
  %6 = call noundef ptr @_ZN4llvm4Type10getInt32TyERNS_11LLVMContextE(ptr noundef nonnull align 8 dereferenceable(8) %5)
  ret ptr %6
}

; Function Attrs: mustprogress nounwind uwtable
define linkonce_odr hidden noundef ptr @_ZN4llvm13IRBuilderBase14CreatePtrToIntEPNS_5ValueEPNS_4TypeERKNS_5TwineE(ptr noundef nonnull align 8 dereferenceable(128) %0, ptr noundef %1, ptr noundef %2, ptr noundef nonnull align 8 dereferenceable(34) %3) #1 comdat align 2 {
  %5 = alloca ptr, align 8
  %6 = alloca ptr, align 8
  %7 = alloca ptr, align 8
  %8 = alloca ptr, align 8
  store ptr %0, ptr %5, align 8
  store ptr %1, ptr %6, align 8
  store ptr %2, ptr %7, align 8
  store ptr %3, ptr %8, align 8
  %9 = load ptr, ptr %5, align 8
  %10 = load ptr, ptr %6, align 8
  %11 = load ptr, ptr %7, align 8
  %12 = load ptr, ptr %8, align 8
  %13 = call noundef ptr @_ZN4llvm13IRBuilderBase10CreateCastENS_11Instruction7CastOpsEPNS_5ValueEPNS_4TypeERKNS_5TwineE(ptr noundef nonnull align 8 dereferenceable(128) %9, i32 noundef 47, ptr noundef %10, ptr noundef %11, ptr noundef nonnull align 8 dereferenceable(34) %12)
  ret ptr %13
}

; Function Attrs: mustprogress nounwind uwtable
define linkonce_odr hidden i32 @_ZN4llvm14GEPNoWrapFlags4noneEv() #1 comdat align 2 {
  %1 = alloca %"class.llvm::GEPNoWrapFlags", align 4
  call void @_ZN4llvm14GEPNoWrapFlagsC2Ev(ptr noundef nonnull align 4 dereferenceable(4) %1)
  %2 = getelementptr inbounds nuw %"class.llvm::GEPNoWrapFlags", ptr %1, i32 0, i32 0
  %3 = load i32, ptr %2, align 4
  ret i32 %3
}

; Function Attrs: mustprogress nounwind uwtable
define linkonce_odr hidden void @_ZN4llvm5TwineC2EPKc(ptr noundef nonnull align 8 dereferenceable(34) %0, ptr noundef %1) unnamed_addr #1 comdat align 2 {
  %3 = alloca ptr, align 8
  %4 = alloca ptr, align 8
  store ptr %0, ptr %3, align 8
  store ptr %1, ptr %4, align 8
  %5 = load ptr, ptr %3, align 8
  %6 = getelementptr inbounds nuw %"class.llvm::Twine", ptr %5, i32 0, i32 2
  store i8 1, ptr %6, align 8
  %7 = getelementptr inbounds nuw %"class.llvm::Twine", ptr %5, i32 0, i32 3
  store i8 1, ptr %7, align 1
  %8 = load ptr, ptr %4, align 8
  %9 = getelementptr inbounds i8, ptr %8, i64 0
  %10 = load i8, ptr %9, align 1
  %11 = sext i8 %10 to i32
  %12 = icmp ne i32 %11, 0
  br i1 %12, label %13, label %17

13:                                               ; preds = %2
  %14 = load ptr, ptr %4, align 8
  %15 = getelementptr inbounds nuw %"class.llvm::Twine", ptr %5, i32 0, i32 0
  store ptr %14, ptr %15, align 8
  %16 = getelementptr inbounds nuw %"class.llvm::Twine", ptr %5, i32 0, i32 2
  store i8 3, ptr %16, align 8
  br label %19

17:                                               ; preds = %2
  %18 = getelementptr inbounds nuw %"class.llvm::Twine", ptr %5, i32 0, i32 2
  store i8 1, ptr %18, align 8
  br label %19

19:                                               ; preds = %17, %13
  ret void
}

; Function Attrs: mustprogress nounwind uwtable
define linkonce_odr hidden void @_ZN4llvm8ArrayRefIPNS_5ValueEEC2ERKS2_(ptr noundef nonnull align 8 dereferenceable(16) %0, ptr noundef nonnull align 8 dereferenceable(8) %1) unnamed_addr #1 comdat align 2 {
  %3 = alloca ptr, align 8
  %4 = alloca ptr, align 8
  store ptr %0, ptr %3, align 8
  store ptr %1, ptr %4, align 8
  %5 = load ptr, ptr %3, align 8
  %6 = getelementptr inbounds nuw %"class.llvm::ArrayRef.48", ptr %5, i32 0, i32 0
  %7 = load ptr, ptr %4, align 8
  store ptr %7, ptr %6, align 8
  %8 = getelementptr inbounds nuw %"class.llvm::ArrayRef.48", ptr %5, i32 0, i32 1
  store i64 1, ptr %8, align 8
  ret void
}

; Function Attrs: mustprogress nounwind uwtable
define linkonce_odr hidden noundef ptr @_ZN4llvm13IRBuilderBase8getInt32Ej(ptr noundef nonnull align 8 dereferenceable(128) %0, i32 noundef %1) #1 comdat align 2 {
  %3 = alloca ptr, align 8
  %4 = alloca i32, align 4
  store ptr %0, ptr %3, align 8
  store i32 %1, ptr %4, align 4
  %5 = load ptr, ptr %3, align 8
  %6 = call noundef ptr @_ZN4llvm13IRBuilderBase10getInt32TyEv(ptr noundef nonnull align 8 dereferenceable(128) %5)
  %7 = load i32, ptr %4, align 4
  %8 = zext i32 %7 to i64
  %9 = call noundef ptr @_ZN4llvm11ConstantInt3getEPNS_11IntegerTypeEmb(ptr noundef %6, i64 noundef %8, i1 noundef zeroext false)
  ret ptr %9
}

; Function Attrs: mustprogress nounwind uwtable
define linkonce_odr hidden noundef ptr @_ZNK4llvm5Value7getTypeEv(ptr noundef nonnull align 8 dereferenceable(24) %0) #1 comdat align 2 {
  %2 = alloca ptr, align 8
  store ptr %0, ptr %2, align 8
  %3 = load ptr, ptr %2, align 8
  %4 = getelementptr inbounds nuw %"class.llvm::Value", ptr %3, i32 0, i32 4
  %5 = load ptr, ptr %4, align 8
  ret ptr %5
}

; Function Attrs: mustprogress nounwind uwtable
define linkonce_odr hidden noundef ptr @_ZN4llvm11PointerType9getUnqualERNS_11LLVMContextE(ptr noundef nonnull align 8 dereferenceable(8) %0) #1 comdat align 2 {
  %2 = alloca ptr, align 8
  store ptr %0, ptr %2, align 8
  %3 = load ptr, ptr %2, align 8
  %4 = call noundef ptr @_ZN4llvm11PointerType3getERNS_11LLVMContextEj(ptr noundef nonnull align 8 dereferenceable(8) %3, i32 noundef 0)
  ret ptr %4
}

; Function Attrs: mustprogress nounwind uwtable
define linkonce_odr hidden noundef nonnull align 8 dereferenceable(8) ptr @_ZNK4llvm13IRBuilderBase10getContextEv(ptr noundef nonnull align 8 dereferenceable(128) %0) #1 comdat align 2 {
  %2 = alloca ptr, align 8
  store ptr %0, ptr %2, align 8
  %3 = load ptr, ptr %2, align 8
  %4 = getelementptr inbounds nuw %"class.llvm::IRBuilderBase", ptr %3, i32 0, i32 3
  %5 = load ptr, ptr %4, align 8
  ret ptr %5
}

; Function Attrs: mustprogress nounwind uwtable
define dso_local noundef ptr @_ZN4llvm15OpenMPIRBuilder14getSizeInBytesEPNS_5ValueE(ptr noundef nonnull align 8 dereferenceable(3104) %0, ptr noundef %1) #1 align 2 {
  %3 = alloca ptr, align 8
  %4 = alloca ptr, align 8
  %5 = alloca ptr, align 8
  %6 = alloca ptr, align 8
  %7 = alloca ptr, align 8
  %8 = alloca %"class.llvm::ArrayRef.48", align 8
  %9 = alloca ptr, align 8
  %10 = alloca %"class.llvm::Twine", align 8
  %11 = alloca %"class.llvm::GEPNoWrapFlags", align 4
  %12 = alloca ptr, align 8
  %13 = alloca %"class.llvm::Twine", align 8
  store ptr %0, ptr %3, align 8
  store ptr %1, ptr %4, align 8
  %14 = load ptr, ptr %3, align 8
  %15 = getelementptr inbounds nuw %"class.llvm::OpenMPIRBuilder", ptr %14, i32 0, i32 3
  %16 = call noundef nonnull align 8 dereferenceable(8) ptr @_ZNK4llvm13IRBuilderBase10getContextEv(ptr noundef nonnull align 8 dereferenceable(128) %15)
  store ptr %16, ptr %5, align 8
  %17 = load ptr, ptr %4, align 8
  %18 = call noundef nonnull align 8 dereferenceable(8) ptr @_ZNK4llvm5Value10getContextEv(ptr noundef nonnull align 8 dereferenceable(24) %17)
  %19 = call noundef ptr @_ZN4llvm11PointerType9getUnqualERNS_11LLVMContextE(ptr noundef nonnull align 8 dereferenceable(8) %18)
  %20 = call noundef ptr @_ZN4llvm8Constant12getNullValueEPNS_4TypeE(ptr noundef %19)
  store ptr %20, ptr %6, align 8
  %21 = getelementptr inbounds nuw %"class.llvm::OpenMPIRBuilder", ptr %14, i32 0, i32 3
  %22 = load ptr, ptr %4, align 8
  %23 = call noundef ptr @_ZNK4llvm5Value7getTypeEv(ptr noundef nonnull align 8 dereferenceable(24) %22)
  %24 = load ptr, ptr %6, align 8
  %25 = getelementptr inbounds nuw %"class.llvm::OpenMPIRBuilder", ptr %14, i32 0, i32 3
  %26 = call noundef ptr @_ZN4llvm13IRBuilderBase8getInt32Ej(ptr noundef nonnull align 8 dereferenceable(128) %25, i32 noundef 1)
  store ptr %26, ptr %9, align 8
  call void @_ZN4llvm8ArrayRefIPNS_5ValueEEC2ERKS2_(ptr noundef nonnull align 8 dereferenceable(16) %8, ptr noundef nonnull align 8 dereferenceable(8) %9)
  call void @_ZN4llvm5TwineC2EPKc(ptr noundef nonnull align 8 dereferenceable(34) %10, ptr noundef @.str.8)
  %27 = call i32 @_ZN4llvm14GEPNoWrapFlags4noneEv()
  %28 = getelementptr inbounds nuw %"class.llvm::GEPNoWrapFlags", ptr %11, i32 0, i32 0
  store i32 %27, ptr %28, align 4
  %29 = getelementptr inbounds nuw { ptr, i64 }, ptr %8, i32 0, i32 0
  %30 = load ptr, ptr %29, align 8
  %31 = getelementptr inbounds nuw { ptr, i64 }, ptr %8, i32 0, i32 1
  %32 = load i64, ptr %31, align 8
  %33 = getelementptr inbounds nuw %"class.llvm::GEPNoWrapFlags", ptr %11, i32 0, i32 0
  %34 = load i32, ptr %33, align 4
  %35 = call noundef ptr @_ZN4llvm13IRBuilderBase9CreateGEPEPNS_4TypeEPNS_5ValueENS_8ArrayRefIS4_EERKNS_5TwineENS_14GEPNoWrapFlagsE(ptr noundef nonnull align 8 dereferenceable(128) %21, ptr noundef %23, ptr noundef %24, ptr %30, i64 %32, ptr noundef nonnull align 8 dereferenceable(34) %10, i32 %34)
  store ptr %35, ptr %7, align 8
  %36 = getelementptr inbounds nuw %"class.llvm::OpenMPIRBuilder", ptr %14, i32 0, i32 3
  %37 = load ptr, ptr %7, align 8
  %38 = load ptr, ptr %5, align 8
  %39 = call noundef ptr @_ZN4llvm4Type10getInt64TyERNS_11LLVMContextE(ptr noundef nonnull align 8 dereferenceable(8) %38)
  call void @_ZN4llvm5TwineC2EPKc(ptr noundef nonnull align 8 dereferenceable(34) %13, ptr noundef @.str.8)
  %40 = call noundef ptr @_ZN4llvm13IRBuilderBase14CreatePtrToIntEPNS_5ValueEPNS_4TypeERKNS_5TwineE(ptr noundef nonnull align 8 dereferenceable(128) %36, ptr noundef %37, ptr noundef %39, ptr noundef nonnull align 8 dereferenceable(34) %13)
  store ptr %40, ptr %12, align 8
  %41 = load ptr, ptr %12, align 8
  ret ptr %41
}