; Function Attrs: mustprogress nounwind uwtable
define dso_local noundef ptr @_ZN4llvm15OpenMPIRBuilder14getSizeInBytesEPNS_5ValueE(ptr noundef nonnull align 8 dereferenceable(3104) %0, ptr noundef nonnull %1) local_unnamed_addr #0 align 2 {
  %3 = alloca ptr, align 8
  %4 = alloca %"class.llvm::Twine", align 8
  %5 = alloca %"class.llvm::Twine", align 8
  %6 = getelementptr inbounds nuw i8, ptr %0, i64 512
  %7 = getelementptr inbounds nuw i8, ptr %0, i64 584
  %8 = load ptr, ptr %7, align 8
  %9 = tail call noundef nonnull align 8 dereferenceable(8) ptr @_ZNK4llvm5Value10getContextEv(ptr noundef nonnull align 8 dereferenceable(24) %1) #26
  %10 = tail call noundef ptr @_ZN4llvm11PointerType3getERNS_11LLVMContextEj(ptr noundef nonnull align 8 dereferenceable(8) %9, i32 noundef 0) #26
  %11 = tail call noundef ptr @_ZN4llvm8Constant12getNullValueEPNS_4TypeE(ptr noundef %10) #26
  %12 = getelementptr inbounds nuw i8, ptr %1, i64 8
  %13 = load ptr, ptr %12, align 8
  %14 = load ptr, ptr %7, align 8
  %15 = tail call noundef ptr @_ZN4llvm4Type10getInt32TyERNS_11LLVMContextE(ptr noundef nonnull align 8 dereferenceable(8) %14) #26
  %16 = tail call noundef ptr @_ZN4llvm11ConstantInt3getEPNS_11IntegerTypeEmb(ptr noundef %15, i64 noundef 1, i1 noundef zeroext false) #26
  store ptr %16, ptr %3, align 8
  %17 = getelementptr inbounds nuw i8, ptr %4, i64 32
  store i16 257, ptr %17, align 8
  %18 = call noundef ptr @_ZN4llvm13IRBuilderBase9CreateGEPEPNS_4TypeEPNS_5ValueENS_8ArrayRefIS4_EERKNS_5TwineENS_14GEPNoWrapFlagsE(ptr noundef nonnull align 8 dereferenceable(128) %6, ptr noundef %13, ptr noundef %11, ptr nonnull %3, i64 1, ptr noundef nonnull align 8 dereferenceable(34) %4, i32 0)
  %19 = call noundef ptr @_ZN4llvm4Type10getInt64TyERNS_11LLVMContextE(ptr noundef nonnull align 8 dereferenceable(8) %8) #26
  %20 = getelementptr inbounds nuw i8, ptr %5, i64 32
  store i16 257, ptr %20, align 8
  %21 = call noundef ptr @_ZN4llvm13IRBuilderBase10CreateCastENS_11Instruction7CastOpsEPNS_5ValueEPNS_4TypeERKNS_5TwineE(ptr noundef nonnull align 8 dereferenceable(128) %6, i32 noundef 47, ptr noundef %18, ptr noundef %19, ptr noundef nonnull align 8 dereferenceable(34) %5)
  ret ptr %21
}